; Function Attrs: mustprogress nofree norecurse nosync nounwind willreturn memory(read, inaccessiblemem: none) uwtable
define ptr @u_memchr_77(ptr noundef readonly %0, i16 noundef zeroext %1, i32 noundef %2) local_unnamed_addr #0 {
  %4 = alloca i16, align 2
  store i16 %1, ptr %4, align 2, !tbaa !3
  %5 = icmp slt i32 %2, 1
  br i1 %5, label %.loopexit, label %6

6:                                                ; preds = %3
  %7 = and i16 %1, -2048
  %8 = icmp eq i16 %7, -10240
  br i1 %8, label %9, label %11

9:                                                ; preds = %6
  %10 = call ptr @u_strFindFirst_77(ptr noundef %0, i32 noundef %2, ptr noundef nonnull %4, i32 noundef 1)
  br label %.loopexit

11:                                               ; preds = %6
  %12 = zext nneg i32 %2 to i64
  %13 = getelementptr inbounds nuw i16, ptr %0, i64 %12
  br label %14

14:                                               ; preds = %17, %11
  %.09 = phi ptr [ %0, %11 ], [ %18, %17 ]
  %15 = load i16, ptr %.09, align 2, !tbaa !3
  %16 = icmp eq i16 %15, %1
  br i1 %16, label %.loopexit, label %17

17:                                               ; preds = %14
  %18 = getelementptr inbounds nuw i8, ptr %.09, i64 2
  %.not = icmp eq ptr %18, %13
  br i1 %.not, label %.loopexit, label %14, !llvm.loop !12

.loopexit:                                        ; preds = %14, %17, %3, %9
  %.0 = phi ptr [ %10, %9 ], [ null, %3 ], [ null, %17 ], [ %.09, %14 ]
  ret ptr %.0
}